target datalayout = "e-m:e-p270:32:32-p271:32:32-p272:64:64-i64:64-i128:128-f80:128-n8:16:32:64-S128"
target triple = "x86_64-pc-linux-gnu"

%struct.archive_read_disk = type { %struct.archive, ptr, i8, i8, ptr, ptr, ptr, ptr, i32, ptr, ptr, ptr, ptr, ptr, ptr, ptr, ptr, ptr, ptr, ptr }
%struct.archive = type { i32, i32, ptr, i32, ptr, i32, i32, ptr, %struct.archive_string, ptr, i32, i32, ptr, ptr, i64, i64, i64, i8, i64 }
%struct.archive_string = type { ptr, i64, i64 }

@.str = private unnamed_addr constant [24 x i8] c"Couldn't determine path\00", align 1

; Function Attrs: nounwind uwtable
define dso_local ptr @archive_read_disk_entry_setup_path(ptr noundef %0, ptr noundef %1, ptr noundef %2) #0 {
  %4 = alloca ptr, align 8
  %5 = alloca ptr, align 8
  %6 = alloca ptr, align 8
  %7 = alloca ptr, align 8
  store ptr %0, ptr %4, align 8
  store ptr %1, ptr %5, align 8
  store ptr %2, ptr %6, align 8
  %8 = load ptr, ptr %5, align 8
  %9 = call ptr @archive_entry_sourcepath(ptr noundef %8)
  store ptr %9, ptr %7, align 8
  %10 = load ptr, ptr %7, align 8
  %11 = icmp eq ptr %10, null
  br i1 %11, label %26, label %12

12:                                               ; preds = %3
  %13 = load ptr, ptr %4, align 8
  %14 = getelementptr inbounds %struct.archive_read_disk, ptr %13, i32 0, i32 4
  %15 = load ptr, ptr %14, align 8
  %16 = icmp ne ptr %15, null
  br i1 %16, label %17, label %29

17:                                               ; preds = %12
  %18 = load ptr, ptr %4, align 8
  %19 = getelementptr inbounds %struct.archive_read_disk, ptr %18, i32 0, i32 7
  %20 = load ptr, ptr %19, align 8
  %21 = load ptr, ptr %4, align 8
  %22 = getelementptr inbounds %struct.archive_read_disk, ptr %21, i32 0, i32 4
  %23 = load ptr, ptr %22, align 8
  %24 = call i32 %20(ptr noundef %23)
  %25 = icmp ne i32 %24, 0
  br i1 %25, label %26, label %29

26:                                               ; preds = %17, %3
  %27 = load ptr, ptr %5, align 8
  %28 = call ptr @archive_entry_pathname(ptr noundef %27)
  store ptr %28, ptr %7, align 8
  br label %29

29:                                               ; preds = %26, %17, %12
  %30 = load ptr, ptr %7, align 8
  %31 = icmp eq ptr %30, null
  br i1 %31, label %32, label %35

32:                                               ; preds = %29
  %33 = load ptr, ptr %4, align 8
  %34 = getelementptr inbounds %struct.archive_read_disk, ptr %33, i32 0, i32 0
  call void (ptr, i32, ptr, ...) @archive_set_error(ptr noundef %34, i32 noundef -1, ptr noundef @.str)
  br label %68

35:                                               ; preds = %29
  %36 = load ptr, ptr %6, align 8
  %37 = icmp ne ptr %36, null
  br i1 %37, label %38, label %67

38:                                               ; preds = %35
  %39 = load ptr, ptr %6, align 8
  %40 = load i32, ptr %39, align 4
  %41 = icmp slt i32 %40, 0
  br i1 %41, label %42, label %67

42:                                               ; preds = %38
  %43 = load ptr, ptr %4, align 8
  %44 = getelementptr inbounds %struct.archive_read_disk, ptr %43, i32 0, i32 4
  %45 = load ptr, ptr %44, align 8
  %46 = icmp ne ptr %45, null
  br i1 %46, label %47, label %67

47:                                               ; preds = %42
  %48 = load ptr, ptr %4, align 8
  %49 = getelementptr inbounds %struct.archive_read_disk, ptr %48, i32 0, i32 3
  %50 = load i8, ptr %49, align 1
  %51 = sext i8 %50 to i32
  %52 = icmp ne i32 %51, 0
  br i1 %52, label %57, label %53

53:                                               ; preds = %47
  %54 = load ptr, ptr %5, align 8
  %55 = call i32 @archive_entry_filetype(ptr noundef %54)
  %56 = icmp ne i32 %55, 40960
  br i1 %56, label %57, label %67

57:                                               ; preds = %53, %47
  %58 = load ptr, ptr %4, align 8
  %59 = getelementptr inbounds %struct.archive_read_disk, ptr %58, i32 0, i32 5
  %60 = load ptr, ptr %59, align 8
  %61 = load ptr, ptr %4, align 8
  %62 = getelementptr inbounds %struct.archive_read_disk, ptr %61, i32 0, i32 4
  %63 = load ptr, ptr %62, align 8
  %64 = load ptr, ptr %7, align 8
  %65 = call i32 %60(ptr noundef %63, ptr noundef %64, i32 noundef 2048)
  %66 = load ptr, ptr %6, align 8
  store i32 %65, ptr %66, align 4
  br label %67

67:                                               ; preds = %57, %53, %42, %38, %35
  br label %68

68:                                               ; preds = %67, %32
  %69 = load ptr, ptr %7, align 8
  ret ptr %69
}