; Function Attrs: nounwind uwtable
define dso_local ptr @archive_read_disk_entry_setup_path(ptr noundef %0, ptr noundef %1, ptr noundef %2) local_unnamed_addr #1 {
  %4 = tail call ptr @archive_entry_sourcepath(ptr noundef %1) #12
  %5 = icmp eq ptr %4, null
  br i1 %5, label %13, label %6

6:                                                ; preds = %3
  %7 = getelementptr inbounds nuw i8, ptr %0, i64 160
  %8 = load ptr, ptr %7, align 8
  %.not = icmp eq ptr %8, null
  br i1 %.not, label %.thread, label %9

9:                                                ; preds = %6
  %10 = getelementptr inbounds nuw i8, ptr %0, i64 184
  %11 = load ptr, ptr %10, align 8
  %12 = tail call i32 %11(ptr noundef nonnull %8) #12
  %.not21 = icmp eq i32 %12, 0
  br i1 %.not21, label %.thread, label %13

13:                                               ; preds = %3, %9
  %14 = tail call ptr @archive_entry_pathname(ptr noundef %1) #12
  %15 = icmp eq ptr %14, null
  br i1 %15, label %16, label %.thread

16:                                               ; preds = %13
  tail call void (ptr, i32, ptr, ...) @archive_set_error(ptr noundef %0, i32 noundef -1, ptr noundef nonnull @.str) #12
  br label %33

.thread:                                          ; preds = %6, %9, %13
  %.028 = phi ptr [ %14, %13 ], [ %4, %9 ], [ %4, %6 ]
  %.not22 = icmp eq ptr %2, null
  br i1 %.not22, label %33, label %17

17:                                               ; preds = %.thread
  %18 = load i32, ptr %2, align 4
  %19 = icmp slt i32 %18, 0
  br i1 %19, label %20, label %33

20:                                               ; preds = %17
  %21 = getelementptr inbounds nuw i8, ptr %0, i64 160
  %22 = load ptr, ptr %21, align 8
  %.not23 = icmp eq ptr %22, null
  br i1 %.not23, label %33, label %23

23:                                               ; preds = %20
  %24 = getelementptr inbounds nuw i8, ptr %0, i64 153
  %25 = load i8, ptr %24, align 1
  %.not24 = icmp eq i8 %25, 0
  br i1 %.not24, label %26, label %28

26:                                               ; preds = %23
  %27 = tail call i32 @archive_entry_filetype(ptr noundef %1) #12
  %.not25 = icmp eq i32 %27, 40960
  br i1 %.not25, label %33, label %._crit_edge

._crit_edge:                                      ; preds = %26
  %.pre = load ptr, ptr %21, align 8
  br label %28

28:                                               ; preds = %._crit_edge, %23
  %29 = phi ptr [ %.pre, %._crit_edge ], [ %22, %23 ]
  %30 = getelementptr inbounds nuw i8, ptr %0, i64 168
  %31 = load ptr, ptr %30, align 8
  %32 = tail call i32 %31(ptr noundef %29, ptr noundef nonnull %.028, i32 noundef 2048) #12
  store i32 %32, ptr %2, align 4
  br label %33

33:                                               ; preds = %.thread, %17, %20, %26, %28, %16
  %.027 = phi ptr [ %.028, %.thread ], [ %.028, %17 ], [ %.028, %20 ], [ %.028, %26 ], [ %.028, %28 ], [ null, %16 ]
  ret ptr %.027
}